target datalayout = "e-m:e-p270:32:32-p271:32:32-p272:64:64-i64:64-i128:128-f80:128-n8:16:32:64-S128"
target triple = "x86_64-pc-linux-gnu"

%"class.pxrInternal_v0_24__pxrReserved__::pxr_double_conversion::Bignum" = type { i16, i16, [128 x i32] }

; Function Attrs: mustprogress nounwind uwtable
define noundef nonnull align 4 dereferenceable(4) ptr @_ZNK32pxrInternal_v0_24__pxrReserved__21pxr_double_conversion6Bignum8RawBigitEi(ptr noundef nonnull align 4 dereferenceable(516) %0, i32 noundef %1) #0 align 2 {
  %3 = alloca ptr, align 8
  %4 = alloca i32, align 4
  store ptr %0, ptr %3, align 8
  store i32 %1, ptr %4, align 4
  %5 = load ptr, ptr %3, align 8
  %6 = getelementptr inbounds nuw %"class.pxrInternal_v0_24__pxrReserved__::pxr_double_conversion::Bignum", ptr %5, i32 0, i32 2
  %7 = load i32, ptr %4, align 4
  %8 = sext i32 %7 to i64
  %9 = getelementptr inbounds [128 x i32], ptr %6, i64 0, i64 %8
  ret ptr %9
}

; Function Attrs: mustprogress uwtable
define noundef i32 @_ZNK32pxrInternal_v0_24__pxrReserved__21pxr_double_conversion6Bignum11BigitOrZeroEi(ptr noundef nonnull align 4 dereferenceable(516) %0, i32 noundef %1) #1 align 2 {
  %3 = alloca i32, align 4
  %4 = alloca ptr, align 8
  %5 = alloca i32, align 4
  store ptr %0, ptr %4, align 8
  store i32 %1, ptr %5, align 4
  %6 = load ptr, ptr %4, align 8
  %7 = load i32, ptr %5, align 4
  %8 = call noundef i32 @_ZNK32pxrInternal_v0_24__pxrReserved__21pxr_double_conversion6Bignum11BigitLengthEv(ptr noundef nonnull align 4 dereferenceable(516) %6)
  %9 = icmp sge i32 %7, %8
  br i1 %9, label %10, label %11

10:                                               ; preds = %2
  store i32 0, ptr %3, align 4
  br label %26

11:                                               ; preds = %2
  %12 = load i32, ptr %5, align 4
  %13 = getelementptr inbounds nuw %"class.pxrInternal_v0_24__pxrReserved__::pxr_double_conversion::Bignum", ptr %6, i32 0, i32 1
  %14 = load i16, ptr %13, align 2
  %15 = sext i16 %14 to i32
  %16 = icmp slt i32 %12, %15
  br i1 %16, label %17, label %18

17:                                               ; preds = %11
  store i32 0, ptr %3, align 4
  br label %26

18:                                               ; preds = %11
  %19 = load i32, ptr %5, align 4
  %20 = getelementptr inbounds nuw %"class.pxrInternal_v0_24__pxrReserved__::pxr_double_conversion::Bignum", ptr %6, i32 0, i32 1
  %21 = load i16, ptr %20, align 2
  %22 = sext i16 %21 to i32
  %23 = sub nsw i32 %19, %22
  %24 = call noundef nonnull align 4 dereferenceable(4) ptr @_ZNK32pxrInternal_v0_24__pxrReserved__21pxr_double_conversion6Bignum8RawBigitEi(ptr noundef nonnull align 4 dereferenceable(516) %6, i32 noundef %23)
  %25 = load i32, ptr %24, align 4
  store i32 %25, ptr %3, align 4
  br label %26

26:                                               ; preds = %18, %17, %10
  %27 = load i32, ptr %3, align 4
  ret i32 %27
}

; Function Attrs: mustprogress nounwind uwtable
define linkonce_odr noundef nonnull align 2 dereferenceable(2) ptr @_ZSt3minIsERKT_S2_S2_(ptr noundef nonnull align 2 dereferenceable(2) %0, ptr noundef nonnull align 2 dereferenceable(2) %1) #0 comdat {
  %3 = alloca ptr, align 8
  %4 = alloca ptr, align 8
  %5 = alloca ptr, align 8
  store ptr %0, ptr %4, align 8
  store ptr %1, ptr %5, align 8
  %6 = load ptr, ptr %5, align 8
  %7 = load i16, ptr %6, align 2
  %8 = sext i16 %7 to i32
  %9 = load ptr, ptr %4, align 8
  %10 = load i16, ptr %9, align 2
  %11 = sext i16 %10 to i32
  %12 = icmp slt i32 %8, %11
  br i1 %12, label %13, label %15

13:                                               ; preds = %2
  %14 = load ptr, ptr %5, align 8
  store ptr %14, ptr %3, align 8
  br label %17

15:                                               ; preds = %2
  %16 = load ptr, ptr %4, align 8
  store ptr %16, ptr %3, align 8
  br label %17

17:                                               ; preds = %15, %13
  %18 = load ptr, ptr %3, align 8
  ret ptr %18
}

; Function Attrs: mustprogress nounwind uwtable
define linkonce_odr noundef i32 @_ZNK32pxrInternal_v0_24__pxrReserved__21pxr_double_conversion6Bignum11BigitLengthEv(ptr noundef nonnull align 4 dereferenceable(516) %0) #0 comdat align 2 {
  %2 = alloca ptr, align 8
  store ptr %0, ptr %2, align 8
  %3 = load ptr, ptr %2, align 8
  %4 = getelementptr inbounds nuw %"class.pxrInternal_v0_24__pxrReserved__::pxr_double_conversion::Bignum", ptr %3, i32 0, i32 0
  %5 = load i16, ptr %4, align 4
  %6 = sext i16 %5 to i32
  %7 = getelementptr inbounds nuw %"class.pxrInternal_v0_24__pxrReserved__::pxr_double_conversion::Bignum", ptr %3, i32 0, i32 1
  %8 = load i16, ptr %7, align 2
  %9 = sext i16 %8 to i32
  %10 = add nsw i32 %6, %9
  ret i32 %10
}

; Function Attrs: mustprogress uwtable
define noundef i32 @_ZN32pxrInternal_v0_24__pxrReserved__21pxr_double_conversion6Bignum11PlusCompareERKS1_S3_S3_(ptr noundef nonnull align 4 dereferenceable(516) %0, ptr noundef nonnull align 4 dereferenceable(516) %1, ptr noundef nonnull align 4 dereferenceable(516) %2) #1 align 2 {
  %4 = alloca i32, align 4
  %5 = alloca ptr, align 8
  %6 = alloca ptr, align 8
  %7 = alloca ptr, align 8
  %8 = alloca i32, align 4
  %9 = alloca i32, align 4
  %10 = alloca i32, align 4
  %11 = alloca i32, align 4
  %12 = alloca i32, align 4
  %13 = alloca i32, align 4
  %14 = alloca i32, align 4
  store ptr %0, ptr %5, align 8
  store ptr %1, ptr %6, align 8
  store ptr %2, ptr %7, align 8
  %15 = load ptr, ptr %5, align 8
  %16 = call noundef i32 @_ZNK32pxrInternal_v0_24__pxrReserved__21pxr_double_conversion6Bignum11BigitLengthEv(ptr noundef nonnull align 4 dereferenceable(516) %15)
  %17 = load ptr, ptr %6, align 8
  %18 = call noundef i32 @_ZNK32pxrInternal_v0_24__pxrReserved__21pxr_double_conversion6Bignum11BigitLengthEv(ptr noundef nonnull align 4 dereferenceable(516) %17)
  %19 = icmp slt i32 %16, %18
  br i1 %19, label %20, label %25

20:                                               ; preds = %3
  %21 = load ptr, ptr %6, align 8
  %22 = load ptr, ptr %5, align 8
  %23 = load ptr, ptr %7, align 8
  %24 = call noundef i32 @_ZN32pxrInternal_v0_24__pxrReserved__21pxr_double_conversion6Bignum11PlusCompareERKS1_S3_S3_(ptr noundef nonnull align 4 dereferenceable(516) %21, ptr noundef nonnull align 4 dereferenceable(516) %22, ptr noundef nonnull align 4 dereferenceable(516) %23)
  store i32 %24, ptr %4, align 4
  br label %113

25:                                               ; preds = %3
  %26 = load ptr, ptr %5, align 8
  %27 = call noundef i32 @_ZNK32pxrInternal_v0_24__pxrReserved__21pxr_double_conversion6Bignum11BigitLengthEv(ptr noundef nonnull align 4 dereferenceable(516) %26)
  %28 = add nsw i32 %27, 1
  %29 = load ptr, ptr %7, align 8
  %30 = call noundef i32 @_ZNK32pxrInternal_v0_24__pxrReserved__21pxr_double_conversion6Bignum11BigitLengthEv(ptr noundef nonnull align 4 dereferenceable(516) %29)
  %31 = icmp slt i32 %28, %30
  br i1 %31, label %32, label %33

32:                                               ; preds = %25
  store i32 -1, ptr %4, align 4
  br label %113

33:                                               ; preds = %25
  %34 = load ptr, ptr %5, align 8
  %35 = call noundef i32 @_ZNK32pxrInternal_v0_24__pxrReserved__21pxr_double_conversion6Bignum11BigitLengthEv(ptr noundef nonnull align 4 dereferenceable(516) %34)
  %36 = load ptr, ptr %7, align 8
  %37 = call noundef i32 @_ZNK32pxrInternal_v0_24__pxrReserved__21pxr_double_conversion6Bignum11BigitLengthEv(ptr noundef nonnull align 4 dereferenceable(516) %36)
  %38 = icmp sgt i32 %35, %37
  br i1 %38, label %39, label %40

39:                                               ; preds = %33
  store i32 1, ptr %4, align 4
  br label %113

40:                                               ; preds = %33
  %41 = load ptr, ptr %5, align 8
  %42 = getelementptr inbounds nuw %"class.pxrInternal_v0_24__pxrReserved__::pxr_double_conversion::Bignum", ptr %41, i32 0, i32 1
  %43 = load i16, ptr %42, align 2
  %44 = sext i16 %43 to i32
  %45 = load ptr, ptr %6, align 8
  %46 = call noundef i32 @_ZNK32pxrInternal_v0_24__pxrReserved__21pxr_double_conversion6Bignum11BigitLengthEv(ptr noundef nonnull align 4 dereferenceable(516) %45)
  %47 = icmp sge i32 %44, %46
  br i1 %47, label %48, label %55

48:                                               ; preds = %40
  %49 = load ptr, ptr %5, align 8
  %50 = call noundef i32 @_ZNK32pxrInternal_v0_24__pxrReserved__21pxr_double_conversion6Bignum11BigitLengthEv(ptr noundef nonnull align 4 dereferenceable(516) %49)
  %51 = load ptr, ptr %7, align 8
  %52 = call noundef i32 @_ZNK32pxrInternal_v0_24__pxrReserved__21pxr_double_conversion6Bignum11BigitLengthEv(ptr noundef nonnull align 4 dereferenceable(516) %51)
  %53 = icmp slt i32 %50, %52
  br i1 %53, label %54, label %55

54:                                               ; preds = %48
  store i32 -1, ptr %4, align 4
  br label %113

55:                                               ; preds = %48, %40
  store i32 0, ptr %8, align 4
  %56 = load ptr, ptr %5, align 8
  %57 = getelementptr inbounds nuw %"class.pxrInternal_v0_24__pxrReserved__::pxr_double_conversion::Bignum", ptr %56, i32 0, i32 1
  %58 = load ptr, ptr %6, align 8
  %59 = getelementptr inbounds nuw %"class.pxrInternal_v0_24__pxrReserved__::pxr_double_conversion::Bignum", ptr %58, i32 0, i32 1
  %60 = call noundef nonnull align 2 dereferenceable(2) ptr @_ZSt3minIsERKT_S2_S2_(ptr noundef nonnull align 2 dereferenceable(2) %57, ptr noundef nonnull align 2 dereferenceable(2) %59)
  %61 = load ptr, ptr %7, align 8
  %62 = getelementptr inbounds nuw %"class.pxrInternal_v0_24__pxrReserved__::pxr_double_conversion::Bignum", ptr %61, i32 0, i32 1
  %63 = call noundef nonnull align 2 dereferenceable(2) ptr @_ZSt3minIsERKT_S2_S2_(ptr noundef nonnull align 2 dereferenceable(2) %60, ptr noundef nonnull align 2 dereferenceable(2) %62)
  %64 = load i16, ptr %63, align 2
  %65 = sext i16 %64 to i32
  store i32 %65, ptr %9, align 4
  %66 = load ptr, ptr %7, align 8
  %67 = call noundef i32 @_ZNK32pxrInternal_v0_24__pxrReserved__21pxr_double_conversion6Bignum11BigitLengthEv(ptr noundef nonnull align 4 dereferenceable(516) %66)
  %68 = sub nsw i32 %67, 1
  store i32 %68, ptr %10, align 4
  br label %69

69:                                               ; preds = %105, %55
  %70 = load i32, ptr %10, align 4
  %71 = load i32, ptr %9, align 4
  %72 = icmp sge i32 %70, %71
  br i1 %72, label %73, label %108

73:                                               ; preds = %69
  %74 = load ptr, ptr %5, align 8
  %75 = load i32, ptr %10, align 4
  %76 = call noundef i32 @_ZNK32pxrInternal_v0_24__pxrReserved__21pxr_double_conversion6Bignum11BigitOrZeroEi(ptr noundef nonnull align 4 dereferenceable(516) %74, i32 noundef %75)
  store i32 %76, ptr %11, align 4
  %77 = load ptr, ptr %6, align 8
  %78 = load i32, ptr %10, align 4
  %79 = call noundef i32 @_ZNK32pxrInternal_v0_24__pxrReserved__21pxr_double_conversion6Bignum11BigitOrZeroEi(ptr noundef nonnull align 4 dereferenceable(516) %77, i32 noundef %78)
  store i32 %79, ptr %12, align 4
  %80 = load ptr, ptr %7, align 8
  %81 = load i32, ptr %10, align 4
  %82 = call noundef i32 @_ZNK32pxrInternal_v0_24__pxrReserved__21pxr_double_conversion6Bignum11BigitOrZeroEi(ptr noundef nonnull align 4 dereferenceable(516) %80, i32 noundef %81)
  store i32 %82, ptr %13, align 4
  %83 = load i32, ptr %11, align 4
  %84 = load i32, ptr %12, align 4
  %85 = add i32 %83, %84
  store i32 %85, ptr %14, align 4
  %86 = load i32, ptr %14, align 4
  %87 = load i32, ptr %13, align 4
  %88 = load i32, ptr %8, align 4
  %89 = add i32 %87, %88
  %90 = icmp ugt i32 %86, %89
  br i1 %90, label %91, label %92

91:                                               ; preds = %73
  store i32 1, ptr %4, align 4
  br label %113

92:                                               ; preds = %73
  %93 = load i32, ptr %13, align 4
  %94 = load i32, ptr %8, align 4
  %95 = add i32 %93, %94
  %96 = load i32, ptr %14, align 4
  %97 = sub i32 %95, %96
  store i32 %97, ptr %8, align 4
  %98 = load i32, ptr %8, align 4
  %99 = icmp ugt i32 %98, 1
  br i1 %99, label %100, label %101

100:                                              ; preds = %92
  store i32 -1, ptr %4, align 4
  br label %113

101:                                              ; preds = %92
  %102 = load i32, ptr %8, align 4
  %103 = shl i32 %102, 28
  store i32 %103, ptr %8, align 4
  br label %104

104:                                              ; preds = %101
  br label %105

105:                                              ; preds = %104
  %106 = load i32, ptr %10, align 4
  %107 = add nsw i32 %106, -1
  store i32 %107, ptr %10, align 4
  br label %69, !llvm.loop !47

108:                                              ; preds = %69
  %109 = load i32, ptr %8, align 4
  %110 = icmp eq i32 %109, 0
  br i1 %110, label %111, label %112

111:                                              ; preds = %108
  store i32 0, ptr %4, align 4
  br label %113

112:                                              ; preds = %108
  store i32 -1, ptr %4, align 4
  br label %113

113:                                              ; preds = %112, %111, %100, %91, %54, %39, %32, %20
  %114 = load i32, ptr %4, align 4
  ret i32 %114
}