; Function Attrs: mustprogress nofree norecurse nosync nounwind willreturn memory(read, inaccessiblemem: none) uwtable
define noundef range(i32 -1, 2) i32 @_ZN32pxrInternal_v0_24__pxrReserved__21pxr_double_conversion6Bignum11PlusCompareERKS1_S3_S3_(ptr nocapture noundef nonnull readonly align 4 dereferenceable(516) %0, ptr nocapture noundef nonnull readonly align 4 dereferenceable(516) %1, ptr nocapture noundef nonnull readonly align 4 dereferenceable(516) %2) local_unnamed_addr #7 align 2 {
  %.pre = load i16, ptr %0, align 4
  %.phi.trans.insert = getelementptr inbounds nuw i8, ptr %0, i64 2
  %.pre78 = load i16, ptr %.phi.trans.insert, align 2
  br label %tailrecurse

tailrecurse:                                      ; preds = %tailrecurse, %3
  %4 = phi i16 [ %.pre78, %3 ], [ %12, %tailrecurse ]
  %5 = phi i16 [ %.pre, %3 ], [ %9, %tailrecurse ]
  %.tr = phi ptr [ %0, %3 ], [ %.tr54, %tailrecurse ]
  %.tr54 = phi ptr [ %1, %3 ], [ %.tr, %tailrecurse ]
  %6 = sext i16 %5 to i32
  %7 = sext i16 %4 to i32
  %8 = add nsw i32 %7, %6
  %9 = load i16, ptr %.tr54, align 4
  %10 = sext i16 %9 to i32
  %11 = getelementptr inbounds nuw i8, ptr %.tr54, i64 2
  %12 = load i16, ptr %11, align 2
  %13 = sext i16 %12 to i32
  %14 = add nsw i32 %13, %10
  %15 = icmp slt i32 %8, %14
  br i1 %15, label %tailrecurse, label %16

16:                                               ; preds = %tailrecurse
  %17 = getelementptr inbounds nuw i8, ptr %.tr, i64 2
  %18 = add nsw i32 %8, 1
  %19 = load i16, ptr %2, align 4
  %20 = sext i16 %19 to i32
  %21 = getelementptr inbounds nuw i8, ptr %2, i64 2
  %22 = load i16, ptr %21, align 2
  %23 = sext i16 %22 to i32
  %24 = add nsw i32 %23, %20
  %25 = icmp slt i32 %18, %24
  br i1 %25, label %.loopexit, label %26

26:                                               ; preds = %16
  %27 = icmp sgt i32 %8, %24
  br i1 %27, label %.loopexit, label %28

28:                                               ; preds = %26
  %.not = icmp sle i32 %14, %7
  %29 = icmp slt i32 %8, %24
  %or.cond = and i1 %.not, %29
  br i1 %or.cond, label %.loopexit, label %30

30:                                               ; preds = %28
  %31 = icmp slt i16 %12, %4
  %.val53 = load i16, ptr %17, align 2
  %32 = select i1 %31, i16 %12, i16 %.val53
  %33 = tail call i16 @llvm.smin.i16(i16 %22, i16 %32)
  %34 = sext i16 %33 to i32
  %.not42.not67 = icmp sgt i32 %24, %34
  br i1 %.not42.not67, label %.lr.ph, label %.loopexit

.lr.ph:                                           ; preds = %30
  %35 = getelementptr inbounds nuw i8, ptr %.tr, i64 4
  %36 = getelementptr inbounds nuw i8, ptr %.tr54, i64 4
  %37 = getelementptr inbounds nuw i8, ptr %2, i64 4
  %38 = sext i16 %19 to i64
  %39 = sext i16 %22 to i64
  %40 = add nsw i64 %38, %39
  %41 = sext i16 %22 to i64
  %42 = sext i32 %24 to i64
  %43 = sext i16 %12 to i64
  %44 = sext i32 %14 to i64
  %45 = sext i16 %4 to i64
  %46 = sext i32 %8 to i64
  %47 = sext i16 %33 to i64
  br label %50

48:                                               ; preds = %69
  %49 = shl nuw nsw i32 %70, 28
  %.not42.not = icmp sgt i64 %indvars.iv.next, %47
  br i1 %.not42.not, label %50, label %._crit_edge.loopexit, !llvm.loop !44

50:                                               ; preds = %.lr.ph, %48
  %indvars.iv = phi i64 [ %40, %.lr.ph ], [ %indvars.iv.next, %48 ]
  %.03769 = phi i32 [ 0, %.lr.ph ], [ %49, %48 ]
  %indvars.iv.next = add nsw i64 %indvars.iv, -1
  %.not.i = icmp sgt i64 %indvars.iv, %46
  %51 = icmp sle i64 %indvars.iv, %45
  %or.cond.i = or i1 %51, %.not.i
  br i1 %or.cond.i, label %_ZNK32pxrInternal_v0_24__pxrReserved__21pxr_double_conversion6Bignum11BigitOrZeroEi.exit, label %52

52:                                               ; preds = %50
  %53 = sub nsw i64 %indvars.iv.next, %45
  %54 = getelementptr inbounds [128 x i32], ptr %35, i64 0, i64 %53
  %55 = load i32, ptr %54, align 4
  br label %_ZNK32pxrInternal_v0_24__pxrReserved__21pxr_double_conversion6Bignum11BigitOrZeroEi.exit

_ZNK32pxrInternal_v0_24__pxrReserved__21pxr_double_conversion6Bignum11BigitOrZeroEi.exit: ; preds = %50, %52
  %.0.i = phi i32 [ %55, %52 ], [ 0, %50 ]
  %.not.i44 = icmp sgt i64 %indvars.iv, %44
  %56 = icmp sle i64 %indvars.iv, %43
  %or.cond.i45 = or i1 %56, %.not.i44
  br i1 %or.cond.i45, label %_ZNK32pxrInternal_v0_24__pxrReserved__21pxr_double_conversion6Bignum11BigitOrZeroEi.exit47, label %57

57:                                               ; preds = %_ZNK32pxrInternal_v0_24__pxrReserved__21pxr_double_conversion6Bignum11BigitOrZeroEi.exit
  %58 = sub nsw i64 %indvars.iv.next, %43
  %59 = getelementptr inbounds [128 x i32], ptr %36, i64 0, i64 %58
  %60 = load i32, ptr %59, align 4
  br label %_ZNK32pxrInternal_v0_24__pxrReserved__21pxr_double_conversion6Bignum11BigitOrZeroEi.exit47

_ZNK32pxrInternal_v0_24__pxrReserved__21pxr_double_conversion6Bignum11BigitOrZeroEi.exit47: ; preds = %_ZNK32pxrInternal_v0_24__pxrReserved__21pxr_double_conversion6Bignum11BigitOrZeroEi.exit, %57
  %.0.i46 = phi i32 [ %60, %57 ], [ 0, %_ZNK32pxrInternal_v0_24__pxrReserved__21pxr_double_conversion6Bignum11BigitOrZeroEi.exit ]
  %.not.i48 = icmp sgt i64 %indvars.iv, %42
  %61 = icmp sle i64 %indvars.iv, %41
  %or.cond.i49 = or i1 %61, %.not.i48
  br i1 %or.cond.i49, label %_ZNK32pxrInternal_v0_24__pxrReserved__21pxr_double_conversion6Bignum11BigitOrZeroEi.exit51, label %62

62:                                               ; preds = %_ZNK32pxrInternal_v0_24__pxrReserved__21pxr_double_conversion6Bignum11BigitOrZeroEi.exit47
  %63 = sub nsw i64 %indvars.iv.next, %41
  %64 = getelementptr inbounds [128 x i32], ptr %37, i64 0, i64 %63
  %65 = load i32, ptr %64, align 4
  br label %_ZNK32pxrInternal_v0_24__pxrReserved__21pxr_double_conversion6Bignum11BigitOrZeroEi.exit51

_ZNK32pxrInternal_v0_24__pxrReserved__21pxr_double_conversion6Bignum11BigitOrZeroEi.exit51: ; preds = %_ZNK32pxrInternal_v0_24__pxrReserved__21pxr_double_conversion6Bignum11BigitOrZeroEi.exit47, %62
  %.0.i50 = phi i32 [ %65, %62 ], [ 0, %_ZNK32pxrInternal_v0_24__pxrReserved__21pxr_double_conversion6Bignum11BigitOrZeroEi.exit47 ]
  %66 = add i32 %.0.i46, %.0.i
  %67 = add i32 %.0.i50, %.03769
  %68 = icmp ugt i32 %66, %67
  br i1 %68, label %.loopexit, label %69

69:                                               ; preds = %_ZNK32pxrInternal_v0_24__pxrReserved__21pxr_double_conversion6Bignum11BigitOrZeroEi.exit51
  %70 = sub nuw i32 %67, %66
  %71 = icmp ugt i32 %70, 1
  br i1 %71, label %.loopexit, label %48

._crit_edge.loopexit:                             ; preds = %48
  %72 = icmp ne i32 %67, %66
  %73 = sext i1 %72 to i32
  br label %.loopexit

.loopexit:                                        ; preds = %69, %_ZNK32pxrInternal_v0_24__pxrReserved__21pxr_double_conversion6Bignum11BigitOrZeroEi.exit51, %30, %._crit_edge.loopexit, %28, %26, %16
  %.0 = phi i32 [ -1, %16 ], [ 1, %26 ], [ -1, %28 ], [ 0, %30 ], [ %73, %._crit_edge.loopexit ], [ -1, %69 ], [ 1, %_ZNK32pxrInternal_v0_24__pxrReserved__21pxr_double_conversion6Bignum11BigitOrZeroEi.exit51 ]
  ret i32 %.0
}